target datalayout = "e-m:e-p270:32:32-p271:32:32-p272:64:64-i64:64-i128:128-f80:128-n8:16:32:64-S128"
target triple = "x86_64-pc-linux-gnu"

%struct._cms_iccprofile_struct = type { ptr, ptr, %struct.tm, i32, i32, i32, i32, i32, i32, i32, i32, i32, i32, i64, i32, %union.cmsProfileID, i32, [100 x i32], [100 x i32], [100 x i32], [100 x i32], [100 x i32], [100 x ptr], [100 x ptr], i32, ptr }
%struct.tm = type { i32, i32, i32, i32, i32, i32, i32, i32, i32, i64, ptr }
%union.cmsProfileID = type { [4 x i32] }
%struct._cms_typehandler_struct = type { i32, ptr, ptr, ptr, ptr, ptr, i32 }

@.str.12 = private unnamed_addr constant [19 x i8] c"Too many tags (%d)\00", align 1

; Function Attrs: nounwind uwtable
define internal i32 @SearchOneTag(ptr noundef %0, i32 noundef %1) #0 {
  %3 = alloca i32, align 4
  %4 = alloca ptr, align 8
  %5 = alloca i32, align 4
  %6 = alloca i32, align 4
  store ptr %0, ptr %4, align 8
  store i32 %1, ptr %5, align 4
  store i32 0, ptr %6, align 4
  br label %7

7:                                                ; preds = %25, %2
  %8 = load i32, ptr %6, align 4
  %9 = load ptr, ptr %4, align 8
  %10 = getelementptr inbounds %struct._cms_iccprofile_struct, ptr %9, i32 0, i32 16
  %11 = load i32, ptr %10, align 4
  %12 = icmp slt i32 %8, %11
  br i1 %12, label %13, label %28

13:                                               ; preds = %7
  %14 = load i32, ptr %5, align 4
  %15 = load ptr, ptr %4, align 8
  %16 = getelementptr inbounds %struct._cms_iccprofile_struct, ptr %15, i32 0, i32 17
  %17 = load i32, ptr %6, align 4
  %18 = sext i32 %17 to i64
  %19 = getelementptr inbounds [100 x i32], ptr %16, i64 0, i64 %18
  %20 = load i32, ptr %19, align 4
  %21 = icmp eq i32 %14, %20
  br i1 %21, label %22, label %24

22:                                               ; preds = %13
  %23 = load i32, ptr %6, align 4
  store i32 %23, ptr %3, align 4
  br label %29

24:                                               ; preds = %13
  br label %25

25:                                               ; preds = %24
  %26 = load i32, ptr %6, align 4
  %27 = add nsw i32 %26, 1
  store i32 %27, ptr %6, align 4
  br label %7, !llvm.loop !9

28:                                               ; preds = %7
  store i32 -1, ptr %3, align 4
  br label %29

29:                                               ; preds = %28, %22
  %30 = load i32, ptr %3, align 4
  ret i32 %30
}

; Function Attrs: nounwind uwtable
define internal void @_cmsDeleteTagByPos(ptr noundef %0, i32 noundef %1) #0 {
  %3 = alloca ptr, align 8
  %4 = alloca i32, align 4
  %5 = alloca ptr, align 8
  %6 = alloca %struct._cms_typehandler_struct, align 8
  store ptr %0, ptr %3, align 8
  store i32 %1, ptr %4, align 4
  %7 = load ptr, ptr %3, align 8
  %8 = getelementptr inbounds %struct._cms_iccprofile_struct, ptr %7, i32 0, i32 22
  %9 = load i32, ptr %4, align 4
  %10 = sext i32 %9 to i64
  %11 = getelementptr inbounds [100 x ptr], ptr %8, i64 0, i64 %10
  %12 = load ptr, ptr %11, align 8
  %13 = icmp ne ptr %12, null
  br i1 %13, label %14, label %66

14:                                               ; preds = %2
  %15 = load ptr, ptr %3, align 8
  %16 = getelementptr inbounds %struct._cms_iccprofile_struct, ptr %15, i32 0, i32 21
  %17 = load i32, ptr %4, align 4
  %18 = sext i32 %17 to i64
  %19 = getelementptr inbounds [100 x i32], ptr %16, i64 0, i64 %18
  %20 = load i32, ptr %19, align 4
  %21 = icmp ne i32 %20, 0
  br i1 %21, label %22, label %32

22:                                               ; preds = %14
  %23 = load ptr, ptr %3, align 8
  %24 = getelementptr inbounds %struct._cms_iccprofile_struct, ptr %23, i32 0, i32 1
  %25 = load ptr, ptr %24, align 8
  %26 = load ptr, ptr %3, align 8
  %27 = getelementptr inbounds %struct._cms_iccprofile_struct, ptr %26, i32 0, i32 22
  %28 = load i32, ptr %4, align 4
  %29 = sext i32 %28 to i64
  %30 = getelementptr inbounds [100 x ptr], ptr %27, i64 0, i64 %29
  %31 = load ptr, ptr %30, align 8
  call void @_cmsFree(ptr noundef %25, ptr noundef %31)
  br label %65

32:                                               ; preds = %14
  %33 = load ptr, ptr %3, align 8
  %34 = getelementptr inbounds %struct._cms_iccprofile_struct, ptr %33, i32 0, i32 23
  %35 = load i32, ptr %4, align 4
  %36 = sext i32 %35 to i64
  %37 = getelementptr inbounds [100 x ptr], ptr %34, i64 0, i64 %36
  %38 = load ptr, ptr %37, align 8
  store ptr %38, ptr %5, align 8
  %39 = load ptr, ptr %5, align 8
  %40 = icmp ne ptr %39, null
  br i1 %40, label %41, label %64

41:                                               ; preds = %32
  %42 = load ptr, ptr %5, align 8
  call void @llvm.memcpy.p0.p0.i64(ptr align 8 %6, ptr align 8 %42, i64 56, i1 false)
  %43 = load ptr, ptr %3, align 8
  %44 = getelementptr inbounds %struct._cms_iccprofile_struct, ptr %43, i32 0, i32 1
  %45 = load ptr, ptr %44, align 8
  %46 = getelementptr inbounds %struct._cms_typehandler_struct, ptr %6, i32 0, i32 5
  store ptr %45, ptr %46, align 8
  %47 = load ptr, ptr %3, align 8
  %48 = getelementptr inbounds %struct._cms_iccprofile_struct, ptr %47, i32 0, i32 4
  %49 = load i32, ptr %48, align 4
  %50 = getelementptr inbounds %struct._cms_typehandler_struct, ptr %6, i32 0, i32 6
  store i32 %49, ptr %50, align 8
  %51 = getelementptr inbounds %struct._cms_typehandler_struct, ptr %6, i32 0, i32 4
  %52 = load ptr, ptr %51, align 8
  %53 = load ptr, ptr %3, align 8
  %54 = getelementptr inbounds %struct._cms_iccprofile_struct, ptr %53, i32 0, i32 22
  %55 = load i32, ptr %4, align 4
  %56 = sext i32 %55 to i64
  %57 = getelementptr inbounds [100 x ptr], ptr %54, i64 0, i64 %56
  %58 = load ptr, ptr %57, align 8
  call void %52(ptr noundef %6, ptr noundef %58)
  %59 = load ptr, ptr %3, align 8
  %60 = getelementptr inbounds %struct._cms_iccprofile_struct, ptr %59, i32 0, i32 22
  %61 = load i32, ptr %4, align 4
  %62 = sext i32 %61 to i64
  %63 = getelementptr inbounds [100 x ptr], ptr %60, i64 0, i64 %62
  store ptr null, ptr %63, align 8
  br label %64

64:                                               ; preds = %41, %32
  br label %65

65:                                               ; preds = %64, %22
  br label %66

66:                                               ; preds = %65, %2
  ret void
}

; Function Attrs: nounwind uwtable
define hidden i32 @_cmsSearchTag(ptr noundef %0, i32 noundef %1, i32 noundef %2) #0 {
  %4 = alloca i32, align 4
  %5 = alloca ptr, align 8
  %6 = alloca i32, align 4
  %7 = alloca i32, align 4
  %8 = alloca i32, align 4
  %9 = alloca i32, align 4
  store ptr %0, ptr %5, align 8
  store i32 %1, ptr %6, align 4
  store i32 %2, ptr %7, align 4
  br label %10

10:                                               ; preds = %34, %3
  %11 = load ptr, ptr %5, align 8
  %12 = load i32, ptr %6, align 4
  %13 = call i32 @SearchOneTag(ptr noundef %11, i32 noundef %12)
  store i32 %13, ptr %8, align 4
  %14 = load i32, ptr %8, align 4
  %15 = icmp slt i32 %14, 0
  br i1 %15, label %16, label %17

16:                                               ; preds = %10
  store i32 -1, ptr %4, align 4
  br label %39

17:                                               ; preds = %10
  %18 = load i32, ptr %7, align 4
  %19 = icmp ne i32 %18, 0
  br i1 %19, label %22, label %20

20:                                               ; preds = %17
  %21 = load i32, ptr %8, align 4
  store i32 %21, ptr %4, align 4
  br label %39

22:                                               ; preds = %17
  %23 = load ptr, ptr %5, align 8
  %24 = getelementptr inbounds %struct._cms_iccprofile_struct, ptr %23, i32 0, i32 18
  %25 = load i32, ptr %8, align 4
  %26 = sext i32 %25 to i64
  %27 = getelementptr inbounds [100 x i32], ptr %24, i64 0, i64 %26
  %28 = load i32, ptr %27, align 4
  store i32 %28, ptr %9, align 4
  %29 = load i32, ptr %9, align 4
  %30 = icmp ne i32 %29, 0
  br i1 %30, label %31, label %33

31:                                               ; preds = %22
  %32 = load i32, ptr %9, align 4
  store i32 %32, ptr %6, align 4
  br label %33

33:                                               ; preds = %31, %22
  br label %34

34:                                               ; preds = %33
  %35 = load i32, ptr %9, align 4
  %36 = icmp ne i32 %35, 0
  br i1 %36, label %10, label %37, !llvm.loop !8

37:                                               ; preds = %34
  %38 = load i32, ptr %8, align 4
  store i32 %38, ptr %4, align 4
  br label %39

39:                                               ; preds = %37, %20, %16
  %40 = load i32, ptr %4, align 4
  ret i32 %40
}

; Function Attrs: nounwind uwtable
define internal i32 @_cmsNewTag(ptr noundef %0, i32 noundef %1, ptr noundef %2) #0 {
  %4 = alloca i32, align 4
  %5 = alloca ptr, align 8
  %6 = alloca i32, align 4
  %7 = alloca ptr, align 8
  %8 = alloca i32, align 4
  store ptr %0, ptr %5, align 8
  store i32 %1, ptr %6, align 4
  store ptr %2, ptr %7, align 8
  %9 = load ptr, ptr %5, align 8
  %10 = load i32, ptr %6, align 4
  %11 = call i32 @_cmsSearchTag(ptr noundef %9, i32 noundef %10, i32 noundef 0)
  store i32 %11, ptr %8, align 4
  %12 = load i32, ptr %8, align 4
  %13 = icmp sge i32 %12, 0
  br i1 %13, label %14, label %19

14:                                               ; preds = %3
  %15 = load ptr, ptr %5, align 8
  %16 = load i32, ptr %8, align 4
  call void @_cmsDeleteTagByPos(ptr noundef %15, i32 noundef %16)
  %17 = load i32, ptr %8, align 4
  %18 = load ptr, ptr %7, align 8
  store i32 %17, ptr %18, align 4
  br label %37

19:                                               ; preds = %3
  %20 = load ptr, ptr %5, align 8
  %21 = getelementptr inbounds %struct._cms_iccprofile_struct, ptr %20, i32 0, i32 16
  %22 = load i32, ptr %21, align 4
  %23 = icmp uge i32 %22, 100
  br i1 %23, label %24, label %28

24:                                               ; preds = %19
  %25 = load ptr, ptr %5, align 8
  %26 = getelementptr inbounds %struct._cms_iccprofile_struct, ptr %25, i32 0, i32 1
  %27 = load ptr, ptr %26, align 8
  call void (ptr, i32, ptr, ...) @cmsSignalError(ptr noundef %27, i32 noundef 2, ptr noundef @.str.12, i32 noundef 100)
  store i32 0, ptr %4, align 4
  br label %38

28:                                               ; preds = %19
  %29 = load ptr, ptr %5, align 8
  %30 = getelementptr inbounds %struct._cms_iccprofile_struct, ptr %29, i32 0, i32 16
  %31 = load i32, ptr %30, align 4
  %32 = load ptr, ptr %7, align 8
  store i32 %31, ptr %32, align 4
  %33 = load ptr, ptr %5, align 8
  %34 = getelementptr inbounds %struct._cms_iccprofile_struct, ptr %33, i32 0, i32 16
  %35 = load i32, ptr %34, align 4
  %36 = add i32 %35, 1
  store i32 %36, ptr %34, align 4
  br label %37

37:                                               ; preds = %28, %14
  store i32 1, ptr %4, align 4
  br label %38

38:                                               ; preds = %37, %24
  %39 = load i32, ptr %4, align 4
  ret i32 %39
}

; Function Attrs: nounwind uwtable
define hidden i32 @cmsLinkTag(ptr noundef %0, i32 noundef %1, i32 noundef %2) #0 {
  %4 = alloca i32, align 4
  %5 = alloca ptr, align 8
  %6 = alloca i32, align 4
  %7 = alloca i32, align 4
  %8 = alloca ptr, align 8
  %9 = alloca i32, align 4
  store ptr %0, ptr %5, align 8
  store i32 %1, ptr %6, align 4
  store i32 %2, ptr %7, align 4
  %10 = load ptr, ptr %5, align 8
  store ptr %10, ptr %8, align 8
  %11 = load ptr, ptr %8, align 8
  %12 = getelementptr inbounds %struct._cms_iccprofile_struct, ptr %11, i32 0, i32 1
  %13 = load ptr, ptr %12, align 8
  %14 = load ptr, ptr %8, align 8
  %15 = getelementptr inbounds %struct._cms_iccprofile_struct, ptr %14, i32 0, i32 25
  %16 = load ptr, ptr %15, align 8
  %17 = call i32 @_cmsLockMutex(ptr noundef %13, ptr noundef %16)
  %18 = icmp ne i32 %17, 0
  br i1 %18, label %20, label %19

19:                                               ; preds = %3
  store i32 0, ptr %4, align 4
  br label %71

20:                                               ; preds = %3
  %21 = load ptr, ptr %8, align 8
  %22 = load i32, ptr %6, align 4
  %23 = call i32 @_cmsNewTag(ptr noundef %21, i32 noundef %22, ptr noundef %9)
  %24 = icmp ne i32 %23, 0
  br i1 %24, label %32, label %25

25:                                               ; preds = %20
  %26 = load ptr, ptr %8, align 8
  %27 = getelementptr inbounds %struct._cms_iccprofile_struct, ptr %26, i32 0, i32 1
  %28 = load ptr, ptr %27, align 8
  %29 = load ptr, ptr %8, align 8
  %30 = getelementptr inbounds %struct._cms_iccprofile_struct, ptr %29, i32 0, i32 25
  %31 = load ptr, ptr %30, align 8
  call void @_cmsUnlockMutex(ptr noundef %28, ptr noundef %31)
  store i32 0, ptr %4, align 4
  br label %71

32:                                               ; preds = %20
  %33 = load ptr, ptr %8, align 8
  %34 = getelementptr inbounds %struct._cms_iccprofile_struct, ptr %33, i32 0, i32 21
  %35 = load i32, ptr %9, align 4
  %36 = sext i32 %35 to i64
  %37 = getelementptr inbounds [100 x i32], ptr %34, i64 0, i64 %36
  store i32 0, ptr %37, align 4
  %38 = load i32, ptr %6, align 4
  %39 = load ptr, ptr %8, align 8
  %40 = getelementptr inbounds %struct._cms_iccprofile_struct, ptr %39, i32 0, i32 17
  %41 = load i32, ptr %9, align 4
  %42 = sext i32 %41 to i64
  %43 = getelementptr inbounds [100 x i32], ptr %40, i64 0, i64 %42
  store i32 %38, ptr %43, align 4
  %44 = load i32, ptr %7, align 4
  %45 = load ptr, ptr %8, align 8
  %46 = getelementptr inbounds %struct._cms_iccprofile_struct, ptr %45, i32 0, i32 18
  %47 = load i32, ptr %9, align 4
  %48 = sext i32 %47 to i64
  %49 = getelementptr inbounds [100 x i32], ptr %46, i64 0, i64 %48
  store i32 %44, ptr %49, align 4
  %50 = load ptr, ptr %8, align 8
  %51 = getelementptr inbounds %struct._cms_iccprofile_struct, ptr %50, i32 0, i32 22
  %52 = load i32, ptr %9, align 4
  %53 = sext i32 %52 to i64
  %54 = getelementptr inbounds [100 x ptr], ptr %51, i64 0, i64 %53
  store ptr null, ptr %54, align 8
  %55 = load ptr, ptr %8, align 8
  %56 = getelementptr inbounds %struct._cms_iccprofile_struct, ptr %55, i32 0, i32 19
  %57 = load i32, ptr %9, align 4
  %58 = sext i32 %57 to i64
  %59 = getelementptr inbounds [100 x i32], ptr %56, i64 0, i64 %58
  store i32 0, ptr %59, align 4
  %60 = load ptr, ptr %8, align 8
  %61 = getelementptr inbounds %struct._cms_iccprofile_struct, ptr %60, i32 0, i32 20
  %62 = load i32, ptr %9, align 4
  %63 = sext i32 %62 to i64
  %64 = getelementptr inbounds [100 x i32], ptr %61, i64 0, i64 %63
  store i32 0, ptr %64, align 4
  %65 = load ptr, ptr %8, align 8
  %66 = getelementptr inbounds %struct._cms_iccprofile_struct, ptr %65, i32 0, i32 1
  %67 = load ptr, ptr %66, align 8
  %68 = load ptr, ptr %8, align 8
  %69 = getelementptr inbounds %struct._cms_iccprofile_struct, ptr %68, i32 0, i32 25
  %70 = load ptr, ptr %69, align 8
  call void @_cmsUnlockMutex(ptr noundef %67, ptr noundef %70)
  store i32 1, ptr %4, align 4
  br label %71

71:                                               ; preds = %32, %25, %19
  %72 = load i32, ptr %4, align 4
  ret i32 %72
}