; Function Attrs: nounwind uwtable
define hidden range(i32 0, 2) i32 @cmsLinkTag(ptr nocapture noundef %0, i32 noundef %1, i32 noundef %2) local_unnamed_addr #0 {
  %4 = alloca %struct._cms_typehandler_struct, align 8
  %5 = getelementptr inbounds i8, ptr %0, i64 8
  %6 = load ptr, ptr %5, align 8
  %7 = getelementptr inbounds i8, ptr %0, i64 3752
  %8 = load ptr, ptr %7, align 8
  %9 = tail call i32 @_cmsLockMutex(ptr noundef %6, ptr noundef %8) #19
  %.not = icmp eq i32 %9, 0
  br i1 %.not, label %64, label %10

10:                                               ; preds = %3
  %11 = getelementptr inbounds i8, ptr %0, i64 144
  %12 = getelementptr inbounds i8, ptr %0, i64 140
  %13 = load i32, ptr %12, align 4
  %14 = icmp sgt i32 %13, 0
  %wide.trip.count.i.i.i = zext nneg i32 %13 to i64
  br i1 %14, label %.lr.ph.i.us.i.i, label %_cmsSearchTag.exit.thread.i

.lr.ph.i.us.i.i:                                  ; preds = %10, %18
  %indvars.iv.i.us.i.i = phi i64 [ %indvars.iv.next.i.us.i.i, %18 ], [ 0, %10 ]
  %15 = getelementptr inbounds [100 x i32], ptr %11, i64 0, i64 %indvars.iv.i.us.i.i
  %16 = load i32, ptr %15, align 4
  %17 = icmp eq i32 %16, %1
  br i1 %17, label %_cmsSearchTag.exit.i, label %18

18:                                               ; preds = %.lr.ph.i.us.i.i
  %indvars.iv.next.i.us.i.i = add nuw nsw i64 %indvars.iv.i.us.i.i, 1
  %exitcond.not.i.us.i.i = icmp eq i64 %indvars.iv.next.i.us.i.i, %wide.trip.count.i.i.i
  br i1 %exitcond.not.i.us.i.i, label %_cmsSearchTag.exit.thread.i, label %.lr.ph.i.us.i.i, !llvm.loop !8

_cmsSearchTag.exit.i:                             ; preds = %.lr.ph.i.us.i.i
  %19 = trunc nuw nsw i64 %indvars.iv.i.us.i.i to i32
  call void @llvm.lifetime.start.p0(i64 56, ptr nonnull %4)
  %20 = getelementptr inbounds i8, ptr %0, i64 2144
  %21 = and i64 %indvars.iv.i.us.i.i, 4294967295
  %22 = getelementptr inbounds [100 x ptr], ptr %20, i64 0, i64 %21
  %23 = load ptr, ptr %22, align 8
  %.not.i.i = icmp eq ptr %23, null
  br i1 %.not.i.i, label %_cmsDeleteTagByPos.exit.i, label %24

24:                                               ; preds = %_cmsSearchTag.exit.i
  %25 = getelementptr inbounds i8, ptr %0, i64 1744
  %26 = getelementptr inbounds [100 x i32], ptr %25, i64 0, i64 %21
  %27 = load i32, ptr %26, align 4
  %.not17.i.i = icmp eq i32 %27, 0
  br i1 %.not17.i.i, label %30, label %28

28:                                               ; preds = %24
  %29 = load ptr, ptr %5, align 8
  tail call void @_cmsFree(ptr noundef %29, ptr noundef nonnull %23) #19
  br label %_cmsDeleteTagByPos.exit.i

30:                                               ; preds = %24
  %31 = getelementptr inbounds i8, ptr %0, i64 2944
  %32 = getelementptr inbounds [100 x ptr], ptr %31, i64 0, i64 %21
  %33 = load ptr, ptr %32, align 8
  %.not18.i.i = icmp eq ptr %33, null
  br i1 %.not18.i.i, label %_cmsDeleteTagByPos.exit.i, label %34

34:                                               ; preds = %30
  call void @llvm.memcpy.p0.p0.i64(ptr noundef nonnull align 8 dereferenceable(56) %4, ptr noundef nonnull align 8 dereferenceable(56) %33, i64 56, i1 false)
  %35 = load ptr, ptr %5, align 8
  %36 = getelementptr inbounds i8, ptr %4, i64 40
  store ptr %35, ptr %36, align 8
  %37 = getelementptr inbounds i8, ptr %0, i64 76
  %38 = load i32, ptr %37, align 4
  %39 = getelementptr inbounds i8, ptr %4, i64 48
  store i32 %38, ptr %39, align 8
  %40 = getelementptr inbounds i8, ptr %4, i64 32
  %41 = load ptr, ptr %40, align 8
  call void %41(ptr noundef nonnull %4, ptr noundef nonnull %23) #19
  store ptr null, ptr %22, align 8
  br label %_cmsDeleteTagByPos.exit.i

_cmsDeleteTagByPos.exit.i:                        ; preds = %34, %30, %28, %_cmsSearchTag.exit.i
  call void @llvm.lifetime.end.p0(i64 56, ptr nonnull %4)
  br label %49

_cmsSearchTag.exit.thread.i:                      ; preds = %18, %10
  %42 = icmp ugt i32 %13, 99
  br i1 %42, label %45, label %43

43:                                               ; preds = %_cmsSearchTag.exit.thread.i
  %44 = add nuw nsw i32 %13, 1
  store i32 %44, ptr %12, align 4
  br label %49

45:                                               ; preds = %_cmsSearchTag.exit.thread.i
  %46 = load ptr, ptr %5, align 8
  tail call void (ptr, i32, ptr, ...) @cmsSignalError(ptr noundef %46, i32 noundef 2, ptr noundef nonnull @.str.12, i32 noundef 100) #19
  %47 = load ptr, ptr %5, align 8
  %48 = load ptr, ptr %7, align 8
  tail call void @_cmsUnlockMutex(ptr noundef %47, ptr noundef %48) #19
  br label %64

49:                                               ; preds = %43, %_cmsDeleteTagByPos.exit.i
  %.020.ph = phi i32 [ %13, %43 ], [ %19, %_cmsDeleteTagByPos.exit.i ]
  %50 = getelementptr inbounds i8, ptr %0, i64 1744
  %51 = sext i32 %.020.ph to i64
  %52 = getelementptr inbounds [100 x i32], ptr %50, i64 0, i64 %51
  store i32 0, ptr %52, align 4
  %53 = getelementptr inbounds [100 x i32], ptr %11, i64 0, i64 %51
  store i32 %1, ptr %53, align 4
  %54 = getelementptr inbounds i8, ptr %0, i64 544
  %55 = getelementptr inbounds [100 x i32], ptr %54, i64 0, i64 %51
  store i32 %2, ptr %55, align 4
  %56 = getelementptr inbounds i8, ptr %0, i64 2144
  %57 = getelementptr inbounds [100 x ptr], ptr %56, i64 0, i64 %51
  store ptr null, ptr %57, align 8
  %58 = getelementptr inbounds i8, ptr %0, i64 944
  %59 = getelementptr inbounds [100 x i32], ptr %58, i64 0, i64 %51
  store i32 0, ptr %59, align 4
  %60 = getelementptr inbounds i8, ptr %0, i64 1344
  %61 = getelementptr inbounds [100 x i32], ptr %60, i64 0, i64 %51
  store i32 0, ptr %61, align 4
  %62 = load ptr, ptr %5, align 8
  %63 = load ptr, ptr %7, align 8
  call void @_cmsUnlockMutex(ptr noundef %62, ptr noundef %63) #19
  br label %64

64:                                               ; preds = %3, %49, %45
  %.0 = phi i32 [ 1, %49 ], [ 0, %45 ], [ 0, %3 ]
  ret i32 %.0
}